; Function Attrs: mustprogress uwtable
define internal void @_ZN7rocksdb12_GLOBAL__N_113TestMemLogger5FlushEv(ptr noundef nonnull align 8 captures(none) dereferenceable(145) %0) unnamed_addr #1 align 2 personality ptr @__gxx_personality_v0 {
  %2 = getelementptr inbounds nuw i8, ptr %0, i64 144
  %3 = load atomic i8, ptr %2 seq_cst, align 8
  %4 = trunc i8 %3 to i1
  br i1 %4, label %5, label %6

5:                                                ; preds = %1
  store atomic i8 0, ptr %2 seq_cst, align 8
  br label %6

6:                                                ; preds = %5, %1
  %7 = getelementptr inbounds nuw i8, ptr %0, i64 40
  %8 = load ptr, ptr %7, align 8, !tbaa !399
  %9 = load ptr, ptr %8, align 8, !tbaa !46
  %10 = getelementptr inbounds nuw i8, ptr %9, i64 152
  %11 = load ptr, ptr %10, align 8
  %12 = tail call noundef i64 %11(ptr noundef nonnull align 8 dereferenceable(32) %8)
  %13 = getelementptr inbounds nuw i8, ptr %0, i64 32
  store atomic i64 %12, ptr %13 seq_cst, align 8
  ret void
}